target datalayout = "e-m:e-p270:32:32-p271:32:32-p272:64:64-i64:64-i128:128-f80:128-n8:16:32:64-S128"
target triple = "x86_64-pc-linux-gnu"

%"class.cv::utils::trace::details::Region" = type <{ ptr, i32, [4 x i8] }>
%"class.cv::BaseRowFilter" = type { ptr, i32, i32 }

; Function Attrs: inlinehint mustprogress nounwind uwtable
define linkonce_odr hidden void @_ZN2cv5utils5trace7details6RegionD2Ev(ptr noundef nonnull align 8 dereferenceable(12) %0) unnamed_addr #6 comdat align 2 personality ptr @__gxx_personality_v0 {
  %2 = alloca ptr, align 8
  store ptr %0, ptr %2, align 8, !tbaa !38
  %3 = load ptr, ptr %2, align 8
  %4 = getelementptr inbounds nuw %"class.cv::utils::trace::details::Region", ptr %3, i32 0, i32 1
  %5 = load i32, ptr %4, align 8, !tbaa !40
  %6 = icmp ne i32 %5, 0
  br i1 %6, label %7, label %9

7:                                                ; preds = %1
  invoke void @_ZN2cv5utils5trace7details6Region7destroyEv(ptr noundef nonnull align 8 dereferenceable(12) %3)
          to label %8 unwind label %10

8:                                                ; preds = %7
  br label %9

9:                                                ; preds = %8, %1
  ret void

10:                                               ; preds = %7
  %11 = landingpad { ptr, i32 }
          catch ptr null
  %12 = extractvalue { ptr, i32 } %11, 0
  call void @__clang_call_terminate(ptr %12) #23
  unreachable
}

; Function Attrs: mustprogress uwtable
define internal void @_ZN2cv12cpu_baseline12_GLOBAL__N_19SqrRowSumIhiEclEPKhPhii(ptr noundef nonnull align 8 dereferenceable(16) %0, ptr noundef %1, ptr noundef %2, i32 noundef %3, i32 noundef %4) unnamed_addr #0 align 2 {
  %6 = alloca ptr, align 8
  %7 = alloca ptr, align 8
  %8 = alloca ptr, align 8
  %9 = alloca i32, align 4
  %10 = alloca i32, align 4
  %11 = alloca %"class.cv::utils::trace::details::Region", align 8
  %12 = alloca ptr, align 8
  %13 = alloca ptr, align 8
  %14 = alloca i32, align 4
  %15 = alloca i32, align 4
  %16 = alloca i32, align 4
  %17 = alloca i32, align 4
  %18 = alloca i32, align 4
  %19 = alloca i32, align 4
  %20 = alloca i32, align 4
  store ptr %0, ptr %6, align 8, !tbaa !1092
  store ptr %1, ptr %7, align 8, !tbaa !12
  store ptr %2, ptr %8, align 8, !tbaa !12
  store i32 %3, ptr %9, align 4, !tbaa !3
  store i32 %4, ptr %10, align 4, !tbaa !3
  %21 = load ptr, ptr %6, align 8
  call void @llvm.lifetime.start.p0(i64 16, ptr %11) #21
  call void @_ZN2cv5utils5trace7details6RegionC1ERKNS3_21LocationStaticStorageE(ptr noundef nonnull align 8 dereferenceable(12) %11, ptr noundef nonnull align 8 dereferenceable(32) @_ZZN2cv12cpu_baseline12_GLOBAL__N_19SqrRowSumIhiEclEPKhPhiiE26__cv_trace_location_fn1293)
  call void @llvm.lifetime.start.p0(i64 8, ptr %12) #21
  %22 = load ptr, ptr %7, align 8, !tbaa !12
  store ptr %22, ptr %12, align 8, !tbaa !12
  call void @llvm.lifetime.start.p0(i64 8, ptr %13) #21
  %23 = load ptr, ptr %8, align 8, !tbaa !12
  store ptr %23, ptr %13, align 8, !tbaa !14
  call void @llvm.lifetime.start.p0(i64 4, ptr %14) #21
  store i32 0, ptr %14, align 4, !tbaa !3
  call void @llvm.lifetime.start.p0(i64 4, ptr %15) #21
  call void @llvm.lifetime.start.p0(i64 4, ptr %16) #21
  %24 = getelementptr inbounds nuw %"class.cv::BaseRowFilter", ptr %21, i32 0, i32 1
  %25 = load i32, ptr %24, align 8, !tbaa !203
  %26 = load i32, ptr %10, align 4, !tbaa !3
  %27 = mul nsw i32 %25, %26
  store i32 %27, ptr %16, align 4, !tbaa !3
  %28 = load i32, ptr %9, align 4, !tbaa !3
  %29 = sub nsw i32 %28, 1
  %30 = load i32, ptr %10, align 4, !tbaa !3
  %31 = mul nsw i32 %29, %30
  store i32 %31, ptr %9, align 4, !tbaa !3
  store i32 0, ptr %15, align 4, !tbaa !3
  br label %32

32:                                               ; preds = %101, %5
  %33 = load i32, ptr %15, align 4, !tbaa !3
  %34 = load i32, ptr %10, align 4, !tbaa !3
  %35 = icmp slt i32 %33, %34
  br i1 %35, label %36, label %108

36:                                               ; preds = %32
  call void @llvm.lifetime.start.p0(i64 4, ptr %17) #21
  store i32 0, ptr %17, align 4, !tbaa !3
  store i32 0, ptr %14, align 4, !tbaa !3
  br label %37

37:                                               ; preds = %53, %36
  %38 = load i32, ptr %14, align 4, !tbaa !3
  %39 = load i32, ptr %16, align 4, !tbaa !3
  %40 = icmp slt i32 %38, %39
  br i1 %40, label %41, label %57

41:                                               ; preds = %37
  call void @llvm.lifetime.start.p0(i64 4, ptr %18) #21
  %42 = load ptr, ptr %12, align 8, !tbaa !12
  %43 = load i32, ptr %14, align 4, !tbaa !3
  %44 = sext i32 %43 to i64
  %45 = getelementptr inbounds i8, ptr %42, i64 %44
  %46 = load i8, ptr %45, align 1, !tbaa !151
  %47 = zext i8 %46 to i32
  store i32 %47, ptr %18, align 4, !tbaa !3
  %48 = load i32, ptr %18, align 4, !tbaa !3
  %49 = load i32, ptr %18, align 4, !tbaa !3
  %50 = mul nsw i32 %48, %49
  %51 = load i32, ptr %17, align 4, !tbaa !3
  %52 = add nsw i32 %51, %50
  store i32 %52, ptr %17, align 4, !tbaa !3
  call void @llvm.lifetime.end.p0(i64 4, ptr %18) #21
  br label %53

53:                                               ; preds = %41
  %54 = load i32, ptr %10, align 4, !tbaa !3
  %55 = load i32, ptr %14, align 4, !tbaa !3
  %56 = add nsw i32 %55, %54
  store i32 %56, ptr %14, align 4, !tbaa !3
  br label %37, !llvm.loop !1104

57:                                               ; preds = %37
  %58 = load i32, ptr %17, align 4, !tbaa !3
  %59 = load ptr, ptr %13, align 8, !tbaa !14
  %60 = getelementptr inbounds i32, ptr %59, i64 0
  store i32 %58, ptr %60, align 4, !tbaa !3
  store i32 0, ptr %14, align 4, !tbaa !3
  br label %61

61:                                               ; preds = %96, %57
  %62 = load i32, ptr %14, align 4, !tbaa !3
  %63 = load i32, ptr %9, align 4, !tbaa !3
  %64 = icmp slt i32 %62, %63
  br i1 %64, label %65, label %100

65:                                               ; preds = %61
  call void @llvm.lifetime.start.p0(i64 4, ptr %19) #21
  %66 = load ptr, ptr %12, align 8, !tbaa !12
  %67 = load i32, ptr %14, align 4, !tbaa !3
  %68 = sext i32 %67 to i64
  %69 = getelementptr inbounds i8, ptr %66, i64 %68
  %70 = load i8, ptr %69, align 1, !tbaa !151
  %71 = zext i8 %70 to i32
  store i32 %71, ptr %19, align 4, !tbaa !3
  call void @llvm.lifetime.start.p0(i64 4, ptr %20) #21
  %72 = load ptr, ptr %12, align 8, !tbaa !12
  %73 = load i32, ptr %14, align 4, !tbaa !3
  %74 = load i32, ptr %16, align 4, !tbaa !3
  %75 = add nsw i32 %73, %74
  %76 = sext i32 %75 to i64
  %77 = getelementptr inbounds i8, ptr %72, i64 %76
  %78 = load i8, ptr %77, align 1, !tbaa !151
  %79 = zext i8 %78 to i32
  store i32 %79, ptr %20, align 4, !tbaa !3
  %80 = load i32, ptr %20, align 4, !tbaa !3
  %81 = load i32, ptr %20, align 4, !tbaa !3
  %82 = mul nsw i32 %80, %81
  %83 = load i32, ptr %19, align 4, !tbaa !3
  %84 = load i32, ptr %19, align 4, !tbaa !3
  %85 = mul nsw i32 %83, %84
  %86 = sub nsw i32 %82, %85
  %87 = load i32, ptr %17, align 4, !tbaa !3
  %88 = add nsw i32 %87, %86
  store i32 %88, ptr %17, align 4, !tbaa !3
  %89 = load i32, ptr %17, align 4, !tbaa !3
  %90 = load ptr, ptr %13, align 8, !tbaa !14
  %91 = load i32, ptr %14, align 4, !tbaa !3
  %92 = load i32, ptr %10, align 4, !tbaa !3
  %93 = add nsw i32 %91, %92
  %94 = sext i32 %93 to i64
  %95 = getelementptr inbounds i32, ptr %90, i64 %94
  store i32 %89, ptr %95, align 4, !tbaa !3
  call void @llvm.lifetime.end.p0(i64 4, ptr %20) #21
  call void @llvm.lifetime.end.p0(i64 4, ptr %19) #21
  br label %96

96:                                               ; preds = %65
  %97 = load i32, ptr %10, align 4, !tbaa !3
  %98 = load i32, ptr %14, align 4, !tbaa !3
  %99 = add nsw i32 %98, %97
  store i32 %99, ptr %14, align 4, !tbaa !3
  br label %61, !llvm.loop !1105

100:                                              ; preds = %61
  call void @llvm.lifetime.end.p0(i64 4, ptr %17) #21
  br label %101

101:                                              ; preds = %100
  %102 = load i32, ptr %15, align 4, !tbaa !3
  %103 = add nsw i32 %102, 1
  store i32 %103, ptr %15, align 4, !tbaa !3
  %104 = load ptr, ptr %12, align 8, !tbaa !12
  %105 = getelementptr inbounds nuw i8, ptr %104, i32 1
  store ptr %105, ptr %12, align 8, !tbaa !12
  %106 = load ptr, ptr %13, align 8, !tbaa !14
  %107 = getelementptr inbounds nuw i32, ptr %106, i32 1
  store ptr %107, ptr %13, align 8, !tbaa !14
  br label %32, !llvm.loop !1106

108:                                              ; preds = %32
  call void @llvm.lifetime.end.p0(i64 4, ptr %16) #21
  call void @llvm.lifetime.end.p0(i64 4, ptr %15) #21
  call void @llvm.lifetime.end.p0(i64 4, ptr %14) #21
  call void @llvm.lifetime.end.p0(i64 8, ptr %13) #21
  call void @llvm.lifetime.end.p0(i64 8, ptr %12) #21
  call void @_ZN2cv5utils5trace7details6RegionD2Ev(ptr noundef nonnull align 8 dereferenceable(12) %11) #21
  call void @llvm.lifetime.end.p0(i64 16, ptr %11) #21
  ret void
}