; Function Attrs: mustprogress uwtable
define internal void @_ZN2cv12cpu_baseline12_GLOBAL__N_19SqrRowSumIhiEclEPKhPhii(ptr noundef nonnull readonly align 8 captures(none) dereferenceable(16) %0, ptr noundef readonly captures(none) %1, ptr noundef writeonly captures(none) %2, i32 noundef %3, i32 noundef %4) unnamed_addr #0 align 2 personality ptr @__gxx_personality_v0 {
  %6 = alloca %"class.cv::utils::trace::details::Region", align 8
  call void @llvm.lifetime.start.p0(i64 16, ptr nonnull %6) #24
  call void @_ZN2cv5utils5trace7details6RegionC1ERKNS3_21LocationStaticStorageE(ptr noundef nonnull align 8 dereferenceable(12) %6, ptr noundef nonnull align 8 dereferenceable(32) @_ZZN2cv12cpu_baseline12_GLOBAL__N_19SqrRowSumIhiEclEPKhPhiiE26__cv_trace_location_fn1293)
  %7 = getelementptr inbounds nuw i8, ptr %0, i64 8
  %8 = load i32, ptr %7, align 8, !tbaa !23
  %9 = mul nsw i32 %8, %4
  %10 = add nsw i32 %3, -1
  %11 = mul nsw i32 %10, %4
  %12 = icmp sgt i32 %4, 0
  br i1 %12, label %.preheader.lr.ph, label %._crit_edge56

.preheader.lr.ph:                                 ; preds = %5
  %13 = icmp sgt i32 %9, 0
  %14 = icmp sgt i32 %11, 0
  %15 = zext nneg i32 %4 to i64
  br i1 %14, label %.preheader.lr.ph.split.us, label %.preheader.lr.ph.split

.preheader.lr.ph.split.us:                        ; preds = %.preheader.lr.ph
  br i1 %13, label %.preheader.us.us.preheader, label %.preheader.us.preheader

.preheader.us.preheader:                          ; preds = %.preheader.lr.ph.split.us
  %16 = sext i32 %9 to i64
  %17 = zext nneg i32 %11 to i64
  br label %.preheader.us

.preheader.us.us.preheader:                       ; preds = %.preheader.lr.ph.split.us
  %18 = zext nneg i32 %9 to i64
  br label %.preheader.us.us

.preheader.us.us:                                 ; preds = %.preheader.us.us.preheader, %._crit_edge52.us.us
  %.055.us.us = phi ptr [ %39, %._crit_edge52.us.us ], [ %1, %.preheader.us.us.preheader ]
  %.03954.us.us = phi ptr [ %40, %._crit_edge52.us.us ], [ %2, %.preheader.us.us.preheader ]
  %.04353.us.us = phi i32 [ %38, %._crit_edge52.us.us ], [ 0, %.preheader.us.us.preheader ]
  br label %30

19:                                               ; preds = %19, %._crit_edge.us.us
  %indvars.iv79 = phi i64 [ %indvars.iv.next80, %19 ], [ 0, %._crit_edge.us.us ]
  %.149.us.us = phi i32 [ %26, %19 ], [ %35, %._crit_edge.us.us ]
  %20 = getelementptr inbounds nuw i8, ptr %.055.us.us, i64 %indvars.iv79
  %21 = load i8, ptr %20, align 1, !tbaa !221
  %22 = zext i8 %21 to i32
  %gep87 = getelementptr inbounds nuw i8, ptr %invariant.gep86, i64 %indvars.iv79
  %23 = load i8, ptr %gep87, align 1, !tbaa !221
  %24 = zext i8 %23 to i32
  %add.us.us = add nuw nsw i32 %24, %22
  %sub.us.us = sub nsw i32 %24, %22
  %25 = mul nsw i32 %add.us.us, %sub.us.us
  %26 = add nsw i32 %25, %.149.us.us
  %indvars.iv.next80 = add nuw nsw i64 %indvars.iv79, %15
  %27 = getelementptr inbounds nuw i32, ptr %.03954.us.us, i64 %indvars.iv.next80
  store i32 %26, ptr %27, align 4, !tbaa !222
  %28 = trunc nuw i64 %indvars.iv.next80 to i32
  %29 = icmp sgt i32 %11, %28
  br i1 %29, label %19, label %._crit_edge52.us.us, !llvm.loop !500

30:                                               ; preds = %.preheader.us.us, %30
  %indvars.iv76 = phi i64 [ 0, %.preheader.us.us ], [ %indvars.iv.next77, %30 ]
  %.04047.us.us = phi i32 [ 0, %.preheader.us.us ], [ %35, %30 ]
  %31 = getelementptr inbounds nuw i8, ptr %.055.us.us, i64 %indvars.iv76
  %32 = load i8, ptr %31, align 1, !tbaa !221
  %33 = zext i8 %32 to i32
  %34 = mul nuw nsw i32 %33, %33
  %35 = add nuw nsw i32 %34, %.04047.us.us
  %indvars.iv.next77 = add nuw nsw i64 %indvars.iv76, %15
  %36 = trunc nuw i64 %indvars.iv.next77 to i32
  %37 = icmp sgt i32 %9, %36
  br i1 %37, label %30, label %._crit_edge.us.us, !llvm.loop !501

._crit_edge.us.us:                                ; preds = %30
  store i32 %35, ptr %.03954.us.us, align 4, !tbaa !222
  %invariant.gep86 = getelementptr inbounds nuw i8, ptr %.055.us.us, i64 %18
  br label %19

._crit_edge52.us.us:                              ; preds = %19
  %38 = add nuw nsw i32 %.04353.us.us, 1
  %39 = getelementptr inbounds nuw i8, ptr %.055.us.us, i64 1
  %40 = getelementptr inbounds nuw i8, ptr %.03954.us.us, i64 4
  %exitcond82.not = icmp eq i32 %38, %4
  br i1 %exitcond82.not, label %._crit_edge56, label %.preheader.us.us, !llvm.loop !502

.preheader.us:                                    ; preds = %.preheader.us.preheader, %._crit_edge52.us
  %.055.us = phi ptr [ %52, %._crit_edge52.us ], [ %1, %.preheader.us.preheader ]
  %.03954.us = phi ptr [ %53, %._crit_edge52.us ], [ %2, %.preheader.us.preheader ]
  %.04353.us = phi i32 [ %51, %._crit_edge52.us ], [ 0, %.preheader.us.preheader ]
  store i32 0, ptr %.03954.us, align 4, !tbaa !222
  %invariant.gep = getelementptr i8, ptr %.055.us, i64 %16
  br label %41

41:                                               ; preds = %.preheader.us, %41
  %indvars.iv72 = phi i64 [ 0, %.preheader.us ], [ %indvars.iv.next73, %41 ]
  %.149.us = phi i32 [ 0, %.preheader.us ], [ %48, %41 ]
  %42 = getelementptr inbounds nuw i8, ptr %.055.us, i64 %indvars.iv72
  %43 = load i8, ptr %42, align 1, !tbaa !221
  %44 = zext i8 %43 to i32
  %gep = getelementptr i8, ptr %invariant.gep, i64 %indvars.iv72
  %45 = load i8, ptr %gep, align 1, !tbaa !221
  %46 = zext i8 %45 to i32
  %add.us = add nuw nsw i32 %46, %44
  %sub.us = sub nsw i32 %46, %44
  %47 = mul nsw i32 %add.us, %sub.us
  %48 = add nsw i32 %47, %.149.us
  %indvars.iv.next73 = add nuw nsw i64 %indvars.iv72, %15
  %49 = getelementptr inbounds nuw i32, ptr %.03954.us, i64 %indvars.iv.next73
  store i32 %48, ptr %49, align 4, !tbaa !222
  %50 = icmp samesign ult i64 %indvars.iv.next73, %17
  br i1 %50, label %41, label %._crit_edge52.us, !llvm.loop !500

._crit_edge52.us:                                 ; preds = %41
  %51 = add nuw nsw i32 %.04353.us, 1
  %52 = getelementptr inbounds nuw i8, ptr %.055.us, i64 1
  %53 = getelementptr inbounds nuw i8, ptr %.03954.us, i64 4
  %exitcond75.not = icmp eq i32 %51, %4
  br i1 %exitcond75.not, label %._crit_edge56, label %.preheader.us, !llvm.loop !502

.preheader.lr.ph.split:                           ; preds = %.preheader.lr.ph
  br i1 %13, label %.preheader.us57, label %.preheader.preheader

.preheader.preheader:                             ; preds = %.preheader.lr.ph.split
  %54 = shl nuw nsw i64 %15, 2
  call void @llvm.memset.p0.i64(ptr align 4 %2, i8 0, i64 %54, i1 false), !tbaa !222
  br label %._crit_edge56

.preheader.us57:                                  ; preds = %.preheader.lr.ph.split, %._crit_edge.us65
  %.055.us58 = phi ptr [ %64, %._crit_edge.us65 ], [ %1, %.preheader.lr.ph.split ]
  %.03954.us59 = phi ptr [ %65, %._crit_edge.us65 ], [ %2, %.preheader.lr.ph.split ]
  %.04353.us60 = phi i32 [ %63, %._crit_edge.us65 ], [ 0, %.preheader.lr.ph.split ]
  br label %55

55:                                               ; preds = %.preheader.us57, %55
  %indvars.iv = phi i64 [ 0, %.preheader.us57 ], [ %indvars.iv.next, %55 ]
  %.04047.us62 = phi i32 [ 0, %.preheader.us57 ], [ %60, %55 ]
  %56 = getelementptr inbounds nuw i8, ptr %.055.us58, i64 %indvars.iv
  %57 = load i8, ptr %56, align 1, !tbaa !221
  %58 = zext i8 %57 to i32
  %59 = mul nuw nsw i32 %58, %58
  %60 = add nuw nsw i32 %59, %.04047.us62
  %indvars.iv.next = add nuw nsw i64 %indvars.iv, %15
  %61 = trunc nuw i64 %indvars.iv.next to i32
  %62 = icmp sgt i32 %9, %61
  br i1 %62, label %55, label %._crit_edge.us65, !llvm.loop !501

._crit_edge.us65:                                 ; preds = %55
  store i32 %60, ptr %.03954.us59, align 4, !tbaa !222
  %63 = add nuw nsw i32 %.04353.us60, 1
  %64 = getelementptr inbounds nuw i8, ptr %.055.us58, i64 1
  %65 = getelementptr inbounds nuw i8, ptr %.03954.us59, i64 4
  %exitcond.not = icmp eq i32 %63, %4
  br i1 %exitcond.not, label %._crit_edge56, label %.preheader.us57, !llvm.loop !502

._crit_edge56:                                    ; preds = %._crit_edge.us65, %._crit_edge52.us, %._crit_edge52.us.us, %.preheader.preheader, %5
  %66 = getelementptr inbounds nuw i8, ptr %6, i64 8
  %67 = load i32, ptr %66, align 8, !tbaa !67
  %.not.i = icmp eq i32 %67, 0
  br i1 %.not.i, label %_ZN2cv5utils5trace7details6RegionD2Ev.exit, label %68

68:                                               ; preds = %._crit_edge56
  invoke void @_ZN2cv5utils5trace7details6Region7destroyEv(ptr noundef nonnull align 8 dereferenceable(12) %6)
          to label %_ZN2cv5utils5trace7details6RegionD2Ev.exit unwind label %69

69:                                               ; preds = %68
  %70 = landingpad { ptr, i32 }
          catch ptr null
  %71 = extractvalue { ptr, i32 } %70, 0
  call void @__clang_call_terminate(ptr %71) #28
  unreachable

_ZN2cv5utils5trace7details6RegionD2Ev.exit:       ; preds = %._crit_edge56, %68
  call void @llvm.lifetime.end.p0(i64 16, ptr nonnull %6) #24
  ret void
}